target datalayout = "e-m:e-p270:32:32-p271:32:32-p272:64:64-i64:64-i128:128-f80:128-n8:16:32:64-S128"
target triple = "x86_64-pc-linux-gnu"

%struct._someip_parameter_list_uat = type { i32, i32, i32, i32, i8, i32, i32, ptr, i32, i32, ptr }

@.str.385 = private unnamed_addr constant [21 x i8] c"Name cannot be empty\00", align 1
@.str.389 = private unnamed_addr constant [72 x i8] c"We currently only support 16 bit Service IDs (Service-ID: %i  Name: %s)\00", align 1
@.str.390 = private unnamed_addr constant [86 x i8] c"We currently only support 16 bit Method IDs (Service-ID: %i  Method-ID: %i  Name: %s)\00", align 1
@.str.391 = private unnamed_addr constant [95 x i8] c"We currently only support 8 bit Version (Service-ID: %i  Method-ID: %i  Version: %d  Name: %s)\00", align 1
@.str.392 = private unnamed_addr constant [118 x i8] c"We currently only support 8 bit Message Type (Service-ID: %i  Method-ID: %i  Version: %d  Message Type: %x  Name: %s)\00", align 1
@.str.393 = private unnamed_addr constant [33 x i8] c"Position >= Number of Parameters\00", align 1
@.str.394 = private unnamed_addr constant [73 x i8] c"Filter String contains illegal chars '.' (Service-ID: %i  Method-ID: %i)\00", align 1
@g_ascii_table = external constant ptr, align 8
@.str.395 = private unnamed_addr constant [74 x i8] c"Filter String contains illegal chars '%c' (Service-ID: %i  Method-ID: %i)\00", align 1
@.str.396 = private unnamed_addr constant [74 x i8] c"Filter String contains invalid byte \\%03o (Service-ID: %i  Method-ID: %i)\00", align 1

; Function Attrs: null_pointer_is_valid sspstrong uwtable
define internal zeroext i1 @update_someip_parameter_list(ptr noundef %0, ptr noundef %1) #0 {
  %3 = alloca i1, align 1
  %4 = alloca ptr, align 8
  %5 = alloca ptr, align 8
  %6 = alloca ptr, align 8
  %7 = alloca i8, align 1
  %8 = alloca i32, align 4
  store ptr %0, ptr %4, align 8
  store ptr %1, ptr %5, align 8
  call void @llvm.lifetime.start.p0(i64 8, ptr %6) #19
  %9 = load ptr, ptr %4, align 8
  store ptr %9, ptr %6, align 8
  call void @llvm.lifetime.start.p0(i64 1, ptr %7) #19
  %10 = load ptr, ptr %6, align 8
  %11 = getelementptr inbounds nuw %struct._someip_parameter_list_uat, ptr %10, i32 0, i32 0
  %12 = load i32, ptr %11, align 8
  %13 = icmp ugt i32 %12, 65535
  br i1 %13, label %14, label %23

14:                                               ; preds = %2
  %15 = load ptr, ptr %6, align 8
  %16 = getelementptr inbounds nuw %struct._someip_parameter_list_uat, ptr %15, i32 0, i32 0
  %17 = load i32, ptr %16, align 8
  %18 = load ptr, ptr %6, align 8
  %19 = getelementptr inbounds nuw %struct._someip_parameter_list_uat, ptr %18, i32 0, i32 7
  %20 = load ptr, ptr %19, align 8
  %21 = call noalias ptr (ptr, ptr, ...) @wmem_strdup_printf(ptr noundef null, ptr noundef @.str.389, i32 noundef %17, ptr noundef %20)
  %22 = load ptr, ptr %5, align 8
  store ptr %21, ptr %22, align 8
  store i1 false, ptr %3, align 1
  store i32 1, ptr %8, align 4
  br label %180

23:                                               ; preds = %2
  %24 = load ptr, ptr %6, align 8
  %25 = getelementptr inbounds nuw %struct._someip_parameter_list_uat, ptr %24, i32 0, i32 1
  %26 = load i32, ptr %25, align 4
  %27 = icmp ugt i32 %26, 65535
  br i1 %27, label %28, label %40

28:                                               ; preds = %23
  %29 = load ptr, ptr %6, align 8
  %30 = getelementptr inbounds nuw %struct._someip_parameter_list_uat, ptr %29, i32 0, i32 0
  %31 = load i32, ptr %30, align 8
  %32 = load ptr, ptr %6, align 8
  %33 = getelementptr inbounds nuw %struct._someip_parameter_list_uat, ptr %32, i32 0, i32 1
  %34 = load i32, ptr %33, align 4
  %35 = load ptr, ptr %6, align 8
  %36 = getelementptr inbounds nuw %struct._someip_parameter_list_uat, ptr %35, i32 0, i32 7
  %37 = load ptr, ptr %36, align 8
  %38 = call noalias ptr (ptr, ptr, ...) @wmem_strdup_printf(ptr noundef null, ptr noundef @.str.390, i32 noundef %31, i32 noundef %34, ptr noundef %37)
  %39 = load ptr, ptr %5, align 8
  store ptr %38, ptr %39, align 8
  store i1 false, ptr %3, align 1
  store i32 1, ptr %8, align 4
  br label %180

40:                                               ; preds = %23
  %41 = load ptr, ptr %6, align 8
  %42 = getelementptr inbounds nuw %struct._someip_parameter_list_uat, ptr %41, i32 0, i32 2
  %43 = load i32, ptr %42, align 8
  %44 = icmp ugt i32 %43, 255
  br i1 %44, label %45, label %60

45:                                               ; preds = %40
  %46 = load ptr, ptr %6, align 8
  %47 = getelementptr inbounds nuw %struct._someip_parameter_list_uat, ptr %46, i32 0, i32 0
  %48 = load i32, ptr %47, align 8
  %49 = load ptr, ptr %6, align 8
  %50 = getelementptr inbounds nuw %struct._someip_parameter_list_uat, ptr %49, i32 0, i32 1
  %51 = load i32, ptr %50, align 4
  %52 = load ptr, ptr %6, align 8
  %53 = getelementptr inbounds nuw %struct._someip_parameter_list_uat, ptr %52, i32 0, i32 2
  %54 = load i32, ptr %53, align 8
  %55 = load ptr, ptr %6, align 8
  %56 = getelementptr inbounds nuw %struct._someip_parameter_list_uat, ptr %55, i32 0, i32 7
  %57 = load ptr, ptr %56, align 8
  %58 = call noalias ptr (ptr, ptr, ...) @wmem_strdup_printf(ptr noundef null, ptr noundef @.str.391, i32 noundef %48, i32 noundef %51, i32 noundef %54, ptr noundef %57)
  %59 = load ptr, ptr %5, align 8
  store ptr %58, ptr %59, align 8
  store i1 false, ptr %3, align 1
  store i32 1, ptr %8, align 4
  br label %180

60:                                               ; preds = %40
  %61 = load ptr, ptr %6, align 8
  %62 = getelementptr inbounds nuw %struct._someip_parameter_list_uat, ptr %61, i32 0, i32 3
  %63 = load i32, ptr %62, align 4
  %64 = icmp ugt i32 %63, 255
  br i1 %64, label %65, label %83

65:                                               ; preds = %60
  %66 = load ptr, ptr %6, align 8
  %67 = getelementptr inbounds nuw %struct._someip_parameter_list_uat, ptr %66, i32 0, i32 0
  %68 = load i32, ptr %67, align 8
  %69 = load ptr, ptr %6, align 8
  %70 = getelementptr inbounds nuw %struct._someip_parameter_list_uat, ptr %69, i32 0, i32 1
  %71 = load i32, ptr %70, align 4
  %72 = load ptr, ptr %6, align 8
  %73 = getelementptr inbounds nuw %struct._someip_parameter_list_uat, ptr %72, i32 0, i32 2
  %74 = load i32, ptr %73, align 8
  %75 = load ptr, ptr %6, align 8
  %76 = getelementptr inbounds nuw %struct._someip_parameter_list_uat, ptr %75, i32 0, i32 3
  %77 = load i32, ptr %76, align 4
  %78 = load ptr, ptr %6, align 8
  %79 = getelementptr inbounds nuw %struct._someip_parameter_list_uat, ptr %78, i32 0, i32 7
  %80 = load ptr, ptr %79, align 8
  %81 = call noalias ptr (ptr, ptr, ...) @wmem_strdup_printf(ptr noundef null, ptr noundef @.str.392, i32 noundef %68, i32 noundef %71, i32 noundef %74, i32 noundef %77, ptr noundef %80)
  %82 = load ptr, ptr %5, align 8
  store ptr %81, ptr %82, align 8
  store i1 false, ptr %3, align 1
  store i32 1, ptr %8, align 4
  br label %180

83:                                               ; preds = %60
  %84 = load ptr, ptr %6, align 8
  %85 = getelementptr inbounds nuw %struct._someip_parameter_list_uat, ptr %84, i32 0, i32 7
  %86 = load ptr, ptr %85, align 8
  %87 = icmp eq ptr %86, null
  br i1 %87, label %96, label %88

88:                                               ; preds = %83
  %89 = load ptr, ptr %6, align 8
  %90 = getelementptr inbounds nuw %struct._someip_parameter_list_uat, ptr %89, i32 0, i32 7
  %91 = load ptr, ptr %90, align 8
  %92 = getelementptr i8, ptr %91, i64 0
  %93 = load i8, ptr %92, align 1
  %94 = sext i8 %93 to i32
  %95 = icmp eq i32 %94, 0
  br i1 %95, label %96, label %99

96:                                               ; preds = %88, %83
  %97 = call noalias ptr (ptr, ptr, ...) @wmem_strdup_printf(ptr noundef null, ptr noundef @.str.385)
  %98 = load ptr, ptr %5, align 8
  store ptr %97, ptr %98, align 8
  store i1 false, ptr %3, align 1
  store i32 1, ptr %8, align 4
  br label %180

99:                                               ; preds = %88
  %100 = load ptr, ptr %6, align 8
  %101 = getelementptr inbounds nuw %struct._someip_parameter_list_uat, ptr %100, i32 0, i32 6
  %102 = load i32, ptr %101, align 8
  %103 = load ptr, ptr %6, align 8
  %104 = getelementptr inbounds nuw %struct._someip_parameter_list_uat, ptr %103, i32 0, i32 5
  %105 = load i32, ptr %104, align 4
  %106 = icmp uge i32 %102, %105
  br i1 %106, label %107, label %110

107:                                              ; preds = %99
  %108 = call noalias ptr (ptr, ptr, ...) @wmem_strdup_printf(ptr noundef null, ptr noundef @.str.393)
  %109 = load ptr, ptr %5, align 8
  store ptr %108, ptr %109, align 8
  store i1 false, ptr %3, align 1
  store i32 1, ptr %8, align 4
  br label %180

110:                                              ; preds = %99
  %111 = load ptr, ptr %6, align 8
  %112 = getelementptr inbounds nuw %struct._someip_parameter_list_uat, ptr %111, i32 0, i32 10
  %113 = load ptr, ptr %112, align 8
  %114 = icmp eq ptr %113, null
  br i1 %114, label %123, label %115

115:                                              ; preds = %110
  %116 = load ptr, ptr %6, align 8
  %117 = getelementptr inbounds nuw %struct._someip_parameter_list_uat, ptr %116, i32 0, i32 10
  %118 = load ptr, ptr %117, align 8
  %119 = getelementptr i8, ptr %118, i64 0
  %120 = load i8, ptr %119, align 1
  %121 = sext i8 %120 to i32
  %122 = icmp eq i32 %121, 0
  br i1 %122, label %123, label %126

123:                                              ; preds = %115, %110
  %124 = call noalias ptr (ptr, ptr, ...) @wmem_strdup_printf(ptr noundef null, ptr noundef @.str.385)
  %125 = load ptr, ptr %5, align 8
  store ptr %124, ptr %125, align 8
  store i1 false, ptr %3, align 1
  store i32 1, ptr %8, align 4
  br label %180

126:                                              ; preds = %115
  %127 = load ptr, ptr %6, align 8
  %128 = getelementptr inbounds nuw %struct._someip_parameter_list_uat, ptr %127, i32 0, i32 10
  %129 = load ptr, ptr %128, align 8
  %130 = call zeroext i8 @proto_check_field_name(ptr noundef %129)
  store i8 %130, ptr %7, align 1
  %131 = load i8, ptr %7, align 1
  %132 = icmp ne i8 %131, 0
  br i1 %132, label %133, label %179

133:                                              ; preds = %126
  %134 = load i8, ptr %7, align 1
  %135 = zext i8 %134 to i32
  %136 = icmp eq i32 %135, 46
  br i1 %136, label %137, label %146

137:                                              ; preds = %133
  %138 = load ptr, ptr %6, align 8
  %139 = getelementptr inbounds nuw %struct._someip_parameter_list_uat, ptr %138, i32 0, i32 0
  %140 = load i32, ptr %139, align 8
  %141 = load ptr, ptr %6, align 8
  %142 = getelementptr inbounds nuw %struct._someip_parameter_list_uat, ptr %141, i32 0, i32 1
  %143 = load i32, ptr %142, align 4
  %144 = call noalias ptr (ptr, ptr, ...) @wmem_strdup_printf(ptr noundef null, ptr noundef @.str.394, i32 noundef %140, i32 noundef %143)
  %145 = load ptr, ptr %5, align 8
  store ptr %144, ptr %145, align 8
  br label %178

146:                                              ; preds = %133
  %147 = load ptr, ptr @g_ascii_table, align 8
  %148 = load i8, ptr %7, align 1
  %149 = zext i8 %148 to i64
  %150 = getelementptr i16, ptr %147, i64 %149
  %151 = load i16, ptr %150, align 2
  %152 = zext i16 %151 to i32
  %153 = and i32 %152, 64
  %154 = icmp ne i32 %153, 0
  br i1 %154, label %155, label %166

155:                                              ; preds = %146
  %156 = load i8, ptr %7, align 1
  %157 = zext i8 %156 to i32
  %158 = load ptr, ptr %6, align 8
  %159 = getelementptr inbounds nuw %struct._someip_parameter_list_uat, ptr %158, i32 0, i32 0
  %160 = load i32, ptr %159, align 8
  %161 = load ptr, ptr %6, align 8
  %162 = getelementptr inbounds nuw %struct._someip_parameter_list_uat, ptr %161, i32 0, i32 1
  %163 = load i32, ptr %162, align 4
  %164 = call noalias ptr (ptr, ptr, ...) @wmem_strdup_printf(ptr noundef null, ptr noundef @.str.395, i32 noundef %157, i32 noundef %160, i32 noundef %163)
  %165 = load ptr, ptr %5, align 8
  store ptr %164, ptr %165, align 8
  br label %177

166:                                              ; preds = %146
  %167 = load i8, ptr %7, align 1
  %168 = zext i8 %167 to i32
  %169 = load ptr, ptr %6, align 8
  %170 = getelementptr inbounds nuw %struct._someip_parameter_list_uat, ptr %169, i32 0, i32 0
  %171 = load i32, ptr %170, align 8
  %172 = load ptr, ptr %6, align 8
  %173 = getelementptr inbounds nuw %struct._someip_parameter_list_uat, ptr %172, i32 0, i32 1
  %174 = load i32, ptr %173, align 4
  %175 = call noalias ptr (ptr, ptr, ...) @wmem_strdup_printf(ptr noundef null, ptr noundef @.str.396, i32 noundef %168, i32 noundef %171, i32 noundef %174)
  %176 = load ptr, ptr %5, align 8
  store ptr %175, ptr %176, align 8
  br label %177

177:                                              ; preds = %166, %155
  br label %178

178:                                              ; preds = %177, %137
  store i1 false, ptr %3, align 1
  store i32 1, ptr %8, align 4
  br label %180

179:                                              ; preds = %126
  store i1 true, ptr %3, align 1
  store i32 1, ptr %8, align 4
  br label %180

180:                                              ; preds = %179, %178, %123, %107, %96, %65, %45, %28, %14
  call void @llvm.lifetime.end.p0(i64 1, ptr %7) #19
  call void @llvm.lifetime.end.p0(i64 8, ptr %6) #19
  %181 = load i1, ptr %3, align 1
  ret i1 %181
}