; Function Attrs: null_pointer_is_valid sspstrong uwtable
define internal noundef zeroext i1 @update_someip_parameter_list(ptr noundef readonly captures(none) %0, ptr noundef writeonly captures(none) %1) #0 {
  %3 = load i32, ptr %0, align 8
  %4 = icmp ugt i32 %3, 65535
  br i1 %4, label %5, label %9

5:                                                ; preds = %2
  %6 = getelementptr inbounds nuw i8, ptr %0, i64 32
  %7 = load ptr, ptr %6, align 8
  %8 = tail call noalias ptr (ptr, ptr, ...) @wmem_strdup_printf(ptr noundef null, ptr noundef nonnull @.str.389, i32 noundef %3, ptr noundef %7)
  br label %.sink.split

9:                                                ; preds = %2
  %10 = getelementptr inbounds nuw i8, ptr %0, i64 4
  %11 = load i32, ptr %10, align 4
  %12 = icmp ugt i32 %11, 65535
  br i1 %12, label %13, label %17

13:                                               ; preds = %9
  %14 = getelementptr inbounds nuw i8, ptr %0, i64 32
  %15 = load ptr, ptr %14, align 8
  %16 = tail call noalias ptr (ptr, ptr, ...) @wmem_strdup_printf(ptr noundef null, ptr noundef nonnull @.str.390, i32 noundef %3, i32 noundef %11, ptr noundef %15)
  br label %.sink.split

17:                                               ; preds = %9
  %18 = getelementptr inbounds nuw i8, ptr %0, i64 8
  %19 = load i32, ptr %18, align 8
  %20 = icmp ugt i32 %19, 255
  br i1 %20, label %21, label %25

21:                                               ; preds = %17
  %22 = getelementptr inbounds nuw i8, ptr %0, i64 32
  %23 = load ptr, ptr %22, align 8
  %24 = tail call noalias ptr (ptr, ptr, ...) @wmem_strdup_printf(ptr noundef null, ptr noundef nonnull @.str.391, i32 noundef %3, i32 noundef %11, i32 noundef %19, ptr noundef %23)
  br label %.sink.split

25:                                               ; preds = %17
  %26 = getelementptr inbounds nuw i8, ptr %0, i64 12
  %27 = load i32, ptr %26, align 4
  %28 = icmp ugt i32 %27, 255
  %29 = getelementptr inbounds nuw i8, ptr %0, i64 32
  %30 = load ptr, ptr %29, align 8
  br i1 %28, label %31, label %33

31:                                               ; preds = %25
  %32 = tail call noalias ptr (ptr, ptr, ...) @wmem_strdup_printf(ptr noundef null, ptr noundef nonnull @.str.392, i32 noundef %3, i32 noundef %11, i32 noundef %19, i32 noundef %27, ptr noundef %30)
  br label %.sink.split

33:                                               ; preds = %25
  %34 = icmp eq ptr %30, null
  br i1 %34, label %38, label %35

35:                                               ; preds = %33
  %36 = load i8, ptr %30, align 1
  %37 = icmp eq i8 %36, 0
  br i1 %37, label %38, label %40

38:                                               ; preds = %35, %33
  %39 = tail call noalias ptr (ptr, ptr, ...) @wmem_strdup_printf(ptr noundef null, ptr noundef nonnull @.str.385)
  br label %.sink.split

40:                                               ; preds = %35
  %41 = getelementptr inbounds nuw i8, ptr %0, i64 24
  %42 = load i32, ptr %41, align 8
  %43 = getelementptr inbounds nuw i8, ptr %0, i64 20
  %44 = load i32, ptr %43, align 4
  %.not = icmp ult i32 %42, %44
  br i1 %.not, label %47, label %45

45:                                               ; preds = %40
  %46 = tail call noalias ptr (ptr, ptr, ...) @wmem_strdup_printf(ptr noundef null, ptr noundef nonnull @.str.393)
  br label %.sink.split

47:                                               ; preds = %40
  %48 = getelementptr inbounds nuw i8, ptr %0, i64 48
  %49 = load ptr, ptr %48, align 8
  %50 = icmp eq ptr %49, null
  br i1 %50, label %54, label %51

51:                                               ; preds = %47
  %52 = load i8, ptr %49, align 1
  %53 = icmp eq i8 %52, 0
  br i1 %53, label %54, label %56

54:                                               ; preds = %51, %47
  %55 = tail call noalias ptr (ptr, ptr, ...) @wmem_strdup_printf(ptr noundef null, ptr noundef nonnull @.str.385)
  br label %.sink.split

56:                                               ; preds = %51
  %57 = tail call zeroext i8 @proto_check_field_name(ptr noundef nonnull %49)
  %.not57 = icmp eq i8 %57, 0
  br i1 %.not57, label %77, label %58

58:                                               ; preds = %56
  %59 = zext i8 %57 to i32
  %60 = icmp eq i8 %57, 46
  br i1 %60, label %61, label %65

61:                                               ; preds = %58
  %62 = load i32, ptr %0, align 8
  %63 = load i32, ptr %10, align 4
  %64 = tail call noalias ptr (ptr, ptr, ...) @wmem_strdup_printf(ptr noundef null, ptr noundef nonnull @.str.394, i32 noundef %62, i32 noundef %63)
  br label %.sink.split

65:                                               ; preds = %58
  %66 = load ptr, ptr @g_ascii_table, align 8
  %67 = zext i8 %57 to i64
  %68 = getelementptr i16, ptr %66, i64 %67
  %69 = load i16, ptr %68, align 2
  %70 = and i16 %69, 64
  %.not58 = icmp eq i16 %70, 0
  %71 = load i32, ptr %0, align 8
  %72 = load i32, ptr %10, align 4
  br i1 %.not58, label %75, label %73

73:                                               ; preds = %65
  %74 = tail call noalias ptr (ptr, ptr, ...) @wmem_strdup_printf(ptr noundef null, ptr noundef nonnull @.str.395, i32 noundef %59, i32 noundef %71, i32 noundef %72)
  br label %.sink.split

75:                                               ; preds = %65
  %76 = tail call noalias ptr (ptr, ptr, ...) @wmem_strdup_printf(ptr noundef null, ptr noundef nonnull @.str.396, i32 noundef %59, i32 noundef %71, i32 noundef %72)
  br label %.sink.split

.sink.split:                                      ; preds = %5, %13, %21, %31, %38, %45, %54, %73, %75, %61
  %.sink = phi ptr [ %64, %61 ], [ %76, %75 ], [ %74, %73 ], [ %55, %54 ], [ %46, %45 ], [ %39, %38 ], [ %32, %31 ], [ %24, %21 ], [ %16, %13 ], [ %8, %5 ]
  store ptr %.sink, ptr %1, align 8
  br label %77

77:                                               ; preds = %.sink.split, %56
  %.0 = phi i1 [ true, %56 ], [ false, %.sink.split ]
  ret i1 %.0
}